; Function Attrs: nounwind uwtable
define noalias nonnull ptr @l_Lean_PrettyPrinter_Formatter_notFollowedBy_formatter___boxed(ptr noundef %0, ptr noundef %1, ptr noundef %2, ptr noundef %3, ptr noundef %4) local_unnamed_addr #0 {
  tail call void @lean_inc_heartbeat() #6
  %6 = tail call noalias ptr @mi_malloc_small(i64 noundef 24) #6
  %7 = icmp eq ptr %6, null
  br i1 %7, label %8, label %l_Lean_PrettyPrinter_Formatter_notFollowedBy_formatter.exit

8:                                                ; preds = %5
  tail call void @lean_internal_panic_out_of_memory() #7
  unreachable

l_Lean_PrettyPrinter_Formatter_notFollowedBy_formatter.exit: ; preds = %5
  %9 = getelementptr inbounds nuw i8, ptr %6, i64 4
  store i32 1, ptr %6, align 4, !tbaa !8
  store i32 -184549352, ptr %9, align 4
  %10 = getelementptr inbounds nuw i8, ptr %6, i64 8
  store ptr @l_Lean_PrettyPrinter_Formatter_notFollowedBy_formatter___rarg, ptr %10, align 8, !tbaa !4
  %11 = getelementptr inbounds nuw i8, ptr %6, i64 16
  store i16 1, ptr %11, align 8, !tbaa !15
  %12 = getelementptr inbounds nuw i8, ptr %6, i64 18
  store i16 0, ptr %12, align 2, !tbaa !15
  %13 = ptrtoint ptr %4 to i64
  %14 = and i64 %13, 1
  %.not = icmp eq i64 %14, 0
  br i1 %.not, label %15, label %lean_dec.exit14

15:                                               ; preds = %l_Lean_PrettyPrinter_Formatter_notFollowedBy_formatter.exit
  %16 = load i32, ptr %4, align 4, !tbaa !8
  %17 = icmp sgt i32 %16, 1
  br i1 %17, label %18, label %20, !prof !11

18:                                               ; preds = %15
  %19 = add nsw i32 %16, -1
  store i32 %19, ptr %4, align 4, !tbaa !8
  br label %lean_dec.exit14

20:                                               ; preds = %15
  %.not.i = icmp eq i32 %16, 0
  br i1 %.not.i, label %lean_dec.exit14, label %21

21:                                               ; preds = %20
  tail call void @lean_dec_ref_cold(ptr noundef nonnull %4) #6
  br label %lean_dec.exit14

lean_dec.exit14:                                  ; preds = %21, %20, %18, %l_Lean_PrettyPrinter_Formatter_notFollowedBy_formatter.exit
  %22 = ptrtoint ptr %3 to i64
  %23 = and i64 %22, 1
  %.not23 = icmp eq i64 %23, 0
  br i1 %.not23, label %24, label %lean_dec.exit13

24:                                               ; preds = %lean_dec.exit14
  %25 = load i32, ptr %3, align 4, !tbaa !8
  %26 = icmp sgt i32 %25, 1
  br i1 %26, label %27, label %29, !prof !11

27:                                               ; preds = %24
  %28 = add nsw i32 %25, -1
  store i32 %28, ptr %3, align 4, !tbaa !8
  br label %lean_dec.exit13

29:                                               ; preds = %24
  %.not.i15 = icmp eq i32 %25, 0
  br i1 %.not.i15, label %lean_dec.exit13, label %30

30:                                               ; preds = %29
  tail call void @lean_dec_ref_cold(ptr noundef nonnull %3) #6
  br label %lean_dec.exit13

lean_dec.exit13:                                  ; preds = %30, %29, %27, %lean_dec.exit14
  %31 = ptrtoint ptr %2 to i64
  %32 = and i64 %31, 1
  %.not24 = icmp eq i64 %32, 0
  br i1 %.not24, label %33, label %lean_dec.exit12

33:                                               ; preds = %lean_dec.exit13
  %34 = load i32, ptr %2, align 4, !tbaa !8
  %35 = icmp sgt i32 %34, 1
  br i1 %35, label %36, label %38, !prof !11

36:                                               ; preds = %33
  %37 = add nsw i32 %34, -1
  store i32 %37, ptr %2, align 4, !tbaa !8
  br label %lean_dec.exit12

38:                                               ; preds = %33
  %.not.i17 = icmp eq i32 %34, 0
  br i1 %.not.i17, label %lean_dec.exit12, label %39

39:                                               ; preds = %38
  tail call void @lean_dec_ref_cold(ptr noundef nonnull %2) #6
  br label %lean_dec.exit12

lean_dec.exit12:                                  ; preds = %39, %38, %36, %lean_dec.exit13
  %40 = ptrtoint ptr %1 to i64
  %41 = and i64 %40, 1
  %.not25 = icmp eq i64 %41, 0
  br i1 %.not25, label %42, label %lean_dec.exit11

42:                                               ; preds = %lean_dec.exit12
  %43 = load i32, ptr %1, align 4, !tbaa !8
  %44 = icmp sgt i32 %43, 1
  br i1 %44, label %45, label %47, !prof !11

45:                                               ; preds = %42
  %46 = add nsw i32 %43, -1
  store i32 %46, ptr %1, align 4, !tbaa !8
  br label %lean_dec.exit11

47:                                               ; preds = %42
  %.not.i19 = icmp eq i32 %43, 0
  br i1 %.not.i19, label %lean_dec.exit11, label %48

48:                                               ; preds = %47
  tail call void @lean_dec_ref_cold(ptr noundef nonnull %1) #6
  br label %lean_dec.exit11

lean_dec.exit11:                                  ; preds = %48, %47, %45, %lean_dec.exit12
  %49 = ptrtoint ptr %0 to i64
  %50 = and i64 %49, 1
  %.not26 = icmp eq i64 %50, 0
  br i1 %.not26, label %51, label %lean_dec.exit

51:                                               ; preds = %lean_dec.exit11
  %52 = load i32, ptr %0, align 4, !tbaa !8
  %53 = icmp sgt i32 %52, 1
  br i1 %53, label %54, label %56, !prof !11

54:                                               ; preds = %51
  %55 = add nsw i32 %52, -1
  store i32 %55, ptr %0, align 4, !tbaa !8
  br label %lean_dec.exit

56:                                               ; preds = %51
  %.not.i21 = icmp eq i32 %52, 0
  br i1 %.not.i21, label %lean_dec.exit, label %57

57:                                               ; preds = %56
  tail call void @lean_dec_ref_cold(ptr noundef nonnull %0) #6
  br label %lean_dec.exit

lean_dec.exit:                                    ; preds = %57, %56, %54, %lean_dec.exit11
  ret ptr %6
}